Microchip MPLAB XC8 Compiler V1.34 ()

Linker command line:

--edf=/opt/microchip/xc8/v1.34/dat/en_msgs.txt -cs \
  -h+dist/default/production/990027251-A_Firmware_Level_Alarm.production.sym \
  --cmf=dist/default/production/990027251-A_Firmware_Level_Alarm.production.cmf \
  -z -Q16F876 -o/tmp/cgtpRYbKy \
  -Mdist/default/production/990027251-A_Firmware_Level_Alarm.production.map \
  -E1 -ver=XC8 -ASTACK=0110h-016fh -pstack=STACK -ACODE=00h-07FFhx4 \
  -ASTRCODE=00h-01FFFh -ASTRING=00h-0FFhx32 -ACONST=00h-0FFhx32 \
  -AENTRY=00h-0FFhx32 -ACOMMON=070h-07Fh -ABANK0=020h-06Fh \
  -ABANK1=0A0h-0EFh -ABANK2=0110h-016Fh -ABANK3=0190h-01EFh \
  -ARAM=020h-06Fh,0A0h-0EFh,0110h-016Fh,0190h-01EFh \
  -AABS1=020h-07Fh,0A0h-0EFh,0110h-016Fh,0190h-01EFh -ASFR0=00h-01Fh \
  -ASFR1=080h-09Fh -ASFR2=0100h-010Fh -ASFR3=0180h-018Fh \
  -preset_vec=00h,intentry=04h,init,end_init -ppowerup=CODE -pcinit=CODE \
  -pfunctab=CODE -ACONFIG=02007h-02007h -pconfig=CONFIG -DCONFIG=2 \
  -AIDLOC=02000h-02003h -pidloc=IDLOC -DIDLOC=2 -AEEDATA=00h-0FFh/02100h \
  -peeprom_data=EEDATA -DEEDATA=2 -DCODE=2 -DSTRCODE=2 -DSTRING=2 -DCONST=2 \
  -DENTRY=2 -k /tmp/cgtQq6ahj.obj \
  dist/default/production/990027251-A_Firmware_Level_Alarm.production.obj 

Object code version is 3.11

Machine type is 16F876



                Name                               Link     Load   Length Selector   Space Scale
/tmp/cgtQq6ahj.obj
                end_init                             12       12        3        8       0
                reset_vec                             0        0        3        0       0
                config                             2007     2007        1     400E       0
dist/default/production/990027251-A_Firmware_Level_Alarm.production.obj
                cinit                                15       15        B        8       0
                intentry                              4        4        E        8       0
                text13                              24D      24D       4B        8       0
                text12                              2FF      2FF        8      5B8       0
                text11                              101      101       C6        8       0
                text10                              2C6      2C6        C        8       0
                text9                                20       20       E1        8       0
                text8                               2B0      2B0       16        8       0
                text7                               311      311        1      5B8       0
                text6                               298      298       18        8       0
                text5                               2EE      2EE        9      5B8       0
                text4                               30D      30D        4      5B8       0
                text3                               307      307        6      5B8       0
                text2                               2E5      2E5        9      5B8       0
                text1                               2DC      2DC        9      5B8       0
                maintext                            1C7      1C7       86        8       0
                cstackBANK0                          32       32        9       20       1
                cstackCOMMON                         70       70        E       70       1
                clrtext                             2F7      2F7        8      5B8       0
                bssBANK0                             20       20       12       20       1
                strings                             2D2      2D2        A      5A4       0

TOTAL           Name                               Link     Load   Length     Space
        CLASS   STACK          

        CLASS   CODE           
                end_init                             12       12        3         0
                cinit                                15       15        B         0
                intentry                              4        4        E         0
                reset_vec                             0        0        3         0
                text13                              24D      24D       4B         0
                text12                              2FF      2FF        8         0
                text11                              101      101       C6         0
                text10                              2C6      2C6        C         0
                text9                                20       20       E1         0
                text8                               2B0      2B0       16         0
                text7                               311      311        1         0
                text6                               298      298       18         0
                text5                               2EE      2EE        9         0
                text4                               30D      30D        4         0
                text3                               307      307        6         0
                text2                               2E5      2E5        9         0
                text1                               2DC      2DC        9         0
                maintext                            1C7      1C7       86         0
                clrtext                             2F7      2F7        8         0

        CLASS   STRCODE        

        CLASS   STRING         
                strings                             2D2      2D2        A         0

        CLASS   CONST          

        CLASS   ENTRY          

        CLASS   COMMON         
                cstackCOMMON                         70       70        E         1

        CLASS   BANK0          
                cstackBANK0                          32       32        9         1
                bssBANK0                             20       20       12         1

        CLASS   BANK1          

        CLASS   BANK2          

        CLASS   BANK3          

        CLASS   RAM            

        CLASS   ABS1           
                abs_s1                               7E       7E        2         1

        CLASS   SFR0           

        CLASS   SFR1           

        CLASS   SFR2           

        CLASS   SFR3           

        CLASS   CONFIG         
                config                             2007     2007        1         0

        CLASS   IDLOC          

        CLASS   EEDATA         



SEGMENTS        Name                           Load    Length   Top    Selector   Space  Class     Delta

                reset_vec                      000000  000003  000003         0       0  CODE        2
                intentry                       000004  0002CE  0002D2         8       0  CODE        2
                bssBANK0                       000020  00001B  00003B        20       1  BANK0       1
                cstackCOMMON                   000070  00000E  00007E        70       1  COMMON      1
                strings                        0002D2  00000A  0002DC       5A4       0  STRING      2
                text1                          0002DC  000036  000312       5B8       0  CODE        2
                config                         002007  000001  002008      400E       0  CONFIG      2


UNUSED ADDRESS RANGES

        Name                Unused          Largest block    Delta
        BANK0            003B-006F             35           1
        BANK1            00A0-00EF             50           1
        BANK2            0110-016F             60           1
        BANK3            0190-01EF             60           1
        CODE             0003-0003              1           2
                         0312-1FFF            800
        CONST            0003-0003              1           2
                         0312-1FFF            100
        EEDATA           2100-21FF            100           2
        ENTRY            0003-0003              1           2
                         0312-1FFF            100
        IDLOC            2000-2003              4           2
        RAM              003B-006F             35           1
                         00A0-00EF             50
                         0110-016F             60
                         0190-01EF             60
        SFR0             0000-001F             20           1
        SFR1             0080-009F             20           1
        SFR2             0100-010F             10           1
        SFR3             0180-018F             10           1
        STACK            0110-016F             60           1
        STRCODE          0003-0003              1           2
                         0312-1FFF           1CEE
        STRING           0003-0003              1           2
                         0312-1FFF            100

                                  Symbol Table

?___awmod                   cstackCOMMON 0070
ISR@adcResult               bssBANK0     0023
ISR@blinkCounter            bssBANK0     0025
_ADCON0bits                 (abs)        001F
_ADCON1bits                 (abs)        009F
_ADIE                       (abs)        0466
_ADIF                       (abs)        0066
_ADRESH                     (abs)        001E
_ADRESL                     (abs)        009E
_FILTERTMR_TO_EMPTY         strings      02D8
_FILTERTMR_TO_FULL          strings      02DA
_INTCONbits                 (abs)        000B
_ISR                        text11       0101
_OPTION_REGbits             (abs)        0081
_PIE1bits                   (abs)        008C
_PORTB                      (abs)        0006
_PORTC                      (abs)        0007
_T1CONbits                  (abs)        0010
_T2CONbits                  (abs)        0012
_TMR0IE                     (abs)        005D
_TMR0IF                     (abs)        005A
_TMR1IE                     (abs)        0460
_TMR1IF                     (abs)        0060
_TMR2IE                     (abs)        0461
_TMR2IF                     (abs)        0061
_TRISA                      (abs)        0085
_TRISB                      (abs)        0086
_TRISC                      (abs)        0087
__CFG_BOREN$ON              (abs)        0000
__CFG_CP$OFF                (abs)        0000
__CFG_CPD$OFF               (abs)        0000
__CFG_FOSC$HS               (abs)        0000
__CFG_LVP$OFF               (abs)        0000
__CFG_PWRTE$OFF             (abs)        0000
__CFG_WDTE$OFF              (abs)        0000
__CFG_WRT$ON                (abs)        0000
__Habs1                     abs1         0000
__Hbank0                    bank0        0000
__Hbank1                    bank1        0000
__Hbank2                    bank2        0000
__Hbank3                    bank3        0000
__HbssBANK0                 bssBANK0     0000
__Hcinit                    cinit        0020
__Hclrtext                  clrtext      0000
__Hcode                     code         0000
__Hcommon                   common       0000
__Hconfig                   config       2008
__HcstackBANK0              cstackBANK0  0000
__HcstackCOMMON             cstackCOMMON 0000
__Heeprom_data              eeprom_data  0000
__Hend_init                 end_init     0015
__Hfunctab                  functab      0000
__Hidloc                    idloc        0000
__Hinit                     init         0012
__Hintentry                 intentry     0012
__Hmaintext                 maintext     0000
__Hpowerup                  powerup      0000
__Hram                      ram          0000
__Hreset_vec                reset_vec    0003
__Hsfr0                     sfr0         0000
__Hsfr1                     sfr1         0000
__Hsfr2                     sfr2         0000
__Hsfr3                     sfr3         0000
__Hspace_0                  (abs)        2008
__Hspace_1                  (abs)        007E
__Hspace_2                  (abs)        0000
__Hspace_3                  (abs)        0000
__Hstack                    stack        0000
__Hstrings                  strings      0000
__Htext                     text         0000
__Labs1                     abs1         0000
__Lbank0                    bank0        0000
__Lbank1                    bank1        0000
__Lbank2                    bank2        0000
__Lbank3                    bank3        0000
__LbssBANK0                 bssBANK0     0000
__Lcinit                    cinit        0015
__Lclrtext                  clrtext      0000
__Lcode                     code         0000
__Lcommon                   common       0000
__Lconfig                   config       2007
__LcstackBANK0              cstackBANK0  0000
__LcstackCOMMON             cstackCOMMON 0000
__Leeprom_data              eeprom_data  0000
__Lend_init                 end_init     0012
__Lfunctab                  functab      0000
__Lidloc                    idloc        0000
__Linit                     init         0012
__Lintentry                 intentry     0004
__Lmaintext                 maintext     0000
__Lpowerup                  powerup      0000
__Lram                      ram          0000
__Lreset_vec                reset_vec    0000
__Lsfr0                     sfr0         0000
__Lsfr1                     sfr1         0000
__Lsfr2                     sfr2         0000
__Lsfr3                     sfr3         0000
__Lspace_0                  (abs)        0000
__Lspace_1                  (abs)        0000
__Lspace_2                  (abs)        0000
__Lspace_3                  (abs)        0000
__Lstack                    stack        0000
__Lstrings                  strings      0000
__Ltext                     text         0000
__S0                        (abs)        2008
__S1                        (abs)        007E
__S2                        (abs)        0000
__S3                        (abs)        0000
___awmod                    text13       024D
___awmod@counter            cstackCOMMON 0075
___awmod@dividend           cstackCOMMON 0072
___awmod@divisor            cstackCOMMON 0070
___awmod@sign               cstackCOMMON 0076
___int_sp                   stack        0000
___latbits                  (abs)        0002
___sp                       stack        0000
__end_of_FILTERTMR_TO_EMPTY strings      02DA
__end_of_FILTERTMR_TO_FULL  strings      02DC
__end_of_ISR                text11       01C7
__end_of___awmod            text13       0298
__end_of__initialization    cinit        001C
__end_of__stringtab         strings      02D8
__end_of_adc_init_CH0       text10       02D2
__end_of_checkSensorState   text9        0101
__end_of_checkTankStatus    text8        02C6
__end_of_hello_world        text7        0312
__end_of_init_sensor        text6        02B0
__end_of_main               maintext     024D
__end_of_timer0_init        text5        02F7
__end_of_timer0_start       text4        0311
__end_of_timer1_init        text3        030D
__end_of_timer1_stop        text12       0307
__end_of_timer2_init        text2        02EE
__end_of_timer2_start       text1        02E5
__initialization            cinit        0015
__pbssBANK0                 bssBANK0     0020
__pcstackBANK0              cstackBANK0  0032
__pcstackCOMMON             cstackCOMMON 0070
__pintentry                 intentry     0004
__pmaintext                 maintext     01C7
__pstrings                  strings      02D2
__ptext1                    text1        02DC
__ptext10                   text10       02C6
__ptext11                   text11       0101
__ptext12                   text12       02FF
__ptext13                   text13       024D
__ptext2                    text2        02E5
__ptext3                    text3        0307
__ptext4                    text4        030D
__ptext5                    text5        02EE
__ptext6                    text6        0298
__ptext7                    text7        0311
__ptext8                    text8        02B0
__ptext9                    text9        0020
__size_of_ISR               (abs)        0000
__size_of___awmod           (abs)        0000
__size_of_adc_init_CH0      (abs)        0000
__size_of_checkSensorState  (abs)        0000
__size_of_checkTankStatus   (abs)        0000
__size_of_hello_world       (abs)        0000
__size_of_init_sensor       (abs)        0000
__size_of_main              (abs)        0000
__size_of_timer0_init       (abs)        0000
__size_of_timer0_start      (abs)        0000
__size_of_timer1_init       (abs)        0000
__size_of_timer1_stop       (abs)        0000
__size_of_timer2_init       (abs)        0000
__size_of_timer2_start      (abs)        0000
__stringbase                strings      02D7
__stringtab                 strings      02D2
_adc_init_CH0               text10       02C6
_blinkState                 bssBANK0     0027
_checkSensorState           text9        0020
_checkTankStatus            text8        02B0
_hello_world                text7        0311
_init_sensor                text6        0298
_levelSensors               bssBANK0     0028
_main                       maintext     01C7
_theAlarm                   bssBANK0     0020
_timer0_init                text5        02EE
_timer0_start               text4        030D
_timer1_init                text3        0307
_timer1_stop                text12       02FF
_timer2_init                text2        02E5
_timer2_start               text1        02DC
btemp                       (abs)        007E
checkSensorState@theSensor  cstackBANK0  0037
checkTankStatus@theSensor   cstackBANK0  0033
clear_ram0                  clrtext      02F7
end_of_initialization       cinit        001C
init_sensor@theSensor_init  cstackBANK0  0033
interrupt_function          intentry     0004
intlevel0                   functab      0000
intlevel1                   functab      0000
intlevel2                   functab      0000
intlevel3                   functab      0000
intlevel4                   functab      0000
intlevel5                   functab      0000
ltemp                       (abs)        007E
ltemp0                      (abs)        007E
ltemp1                      (abs)        0082
ltemp2                      (abs)        0086
ltemp3                      (abs)        0080
main@i                      cstackBANK0  0039
reset_vec                   reset_vec    0000
saved_w                     (abs)        007E
stackhi                     (abs)        0000
stacklo                     (abs)        0000
start                       init         0012
start_initialization        cinit        0015
ttemp                       (abs)        007E
ttemp0                      (abs)        007E
ttemp1                      (abs)        0081
ttemp2                      (abs)        0084
ttemp3                      (abs)        0087
ttemp4                      (abs)        007F
wtemp                       (abs)        007E
wtemp0                      (abs)        007E
wtemp1                      (abs)        0080
wtemp2                      (abs)        0082
wtemp3                      (abs)        0084
wtemp4                      (abs)        0086
wtemp5                      (abs)        0088
wtemp6                      (abs)        007F


FUNCTION INFORMATION:

 *************** function _main *****************
 Defined at:
		line 124 in file "main.c"
 Parameters:    Size  Location     Type
		None
 Auto vars:     Size  Location     Type
  i               2    7[BANK0 ] int 
 Return value:  Size  Location     Type
                  2   95[None  ] int 
 Registers used:
		wreg, fsr0l, fsr0h, status,2, status,0, btemp+1, pclath, cstack
 Tracked objects:
		On entry : 
		On exit  : 
		Unchanged: 
 Data sizes:     COMMON   BANK0   BANK1   BANK3   BANK2
      Params:         0       0       0       0       0
      Locals:         0       2       0       0       0
      Temps:          0       1       0       0       0
      Totals:         0       3       0       0       0
Total ram usage:        3 bytes
 Hardware stack levels required when called:    3
 This function calls:
		_adc_init_CH0
		_checkSensorState
		_checkTankStatus
		_hello_world
		_init_sensor
		_timer0_init
		_timer0_start
		_timer1_init
		_timer2_init
		_timer2_start
 This function is called by:
		Startup code after reset
 This function uses a non-reentrant model


 *************** function _timer2_start *****************
 Defined at:
		line 155 in file "util.c"
 Parameters:    Size  Location     Type
		None
 Auto vars:     Size  Location     Type
		None
 Return value:  Size  Location     Type
		None               void
 Registers used:
		None
 Tracked objects:
		On entry : 
		On exit  : 
		Unchanged: 
 Data sizes:     COMMON   BANK0   BANK1   BANK3   BANK2
      Params:         0       0       0       0       0
      Locals:         0       0       0       0       0
      Temps:          0       0       0       0       0
      Totals:         0       0       0       0       0
Total ram usage:        0 bytes
 Hardware stack levels used:    1
 Hardware stack levels required when called:    2
 This function calls:
		Nothing
 This function is called by:
		_main
 This function uses a non-reentrant model


 *************** function _timer2_init *****************
 Defined at:
		line 150 in file "util.c"
 Parameters:    Size  Location     Type
		None
 Auto vars:     Size  Location     Type
		None
 Return value:  Size  Location     Type
		None               void
 Registers used:
		wreg, status,2, status,0
 Tracked objects:
		On entry : 
		On exit  : 
		Unchanged: 
 Data sizes:     COMMON   BANK0   BANK1   BANK3   BANK2
      Params:         0       0       0       0       0
      Locals:         0       0       0       0       0
      Temps:          0       0       0       0       0
      Totals:         0       0       0       0       0
Total ram usage:        0 bytes
 Hardware stack levels used:    1
 Hardware stack levels required when called:    2
 This function calls:
		Nothing
 This function is called by:
		_main
 This function uses a non-reentrant model


 *************** function _timer1_init *****************
 Defined at:
		line 121 in file "util.c"
 Parameters:    Size  Location     Type
		None
 Auto vars:     Size  Location     Type
		None
 Return value:  Size  Location     Type
		None               void
 Registers used:
		wreg, status,2, status,0
 Tracked objects:
		On entry : 
		On exit  : 
		Unchanged: 
 Data sizes:     COMMON   BANK0   BANK1   BANK3   BANK2
      Params:         0       0       0       0       0
      Locals:         0       0       0       0       0
      Temps:          0       0       0       0       0
      Totals:         0       0       0       0       0
Total ram usage:        0 bytes
 Hardware stack levels used:    1
 Hardware stack levels required when called:    2
 This function calls:
		Nothing
 This function is called by:
		_main
 This function uses a non-reentrant model


 *************** function _timer0_start *****************
 Defined at:
		line 175 in file "util.c"
 Parameters:    Size  Location     Type
		None
 Auto vars:     Size  Location     Type
		None
 Return value:  Size  Location     Type
		None               void
 Registers used:
		None
 Tracked objects:
		On entry : 
		On exit  : 
		Unchanged: 
 Data sizes:     COMMON   BANK0   BANK1   BANK3   BANK2
      Params:         0       0       0       0       0
      Locals:         0       0       0       0       0
      Temps:          0       0       0       0       0
      Totals:         0       0       0       0       0
Total ram usage:        0 bytes
 Hardware stack levels used:    1
 Hardware stack levels required when called:    2
 This function calls:
		Nothing
 This function is called by:
		_main
 This function uses a non-reentrant model


 *************** function _timer0_init *****************
 Defined at:
		line 168 in file "util.c"
 Parameters:    Size  Location     Type
		None
 Auto vars:     Size  Location     Type
		None
 Return value:  Size  Location     Type
		None               void
 Registers used:
		wreg, status,2, status,0
 Tracked objects:
		On entry : 
		On exit  : 
		Unchanged: 
 Data sizes:     COMMON   BANK0   BANK1   BANK3   BANK2
      Params:         0       0       0       0       0
      Locals:         0       0       0       0       0
      Temps:          0       0       0       0       0
      Totals:         0       0       0       0       0
Total ram usage:        0 bytes
 Hardware stack levels used:    1
 Hardware stack levels required when called:    2
 This function calls:
		Nothing
 This function is called by:
		_main
 This function uses a non-reentrant model


 *************** function _init_sensor *****************
 Defined at:
		line 89 in file "util.c"
 Parameters:    Size  Location     Type
  theSensor_in    1    wreg     PTR volatile struct leve
		 -> levelSensors(10), 
 Auto vars:     Size  Location     Type
  theSensor_in    1    1[BANK0 ] PTR volatile struct leve
		 -> levelSensors(10), 
 Return value:  Size  Location     Type
		None               void
 Registers used:
		wreg, fsr0l, fsr0h, status,2, status,0
 Tracked objects:
		On entry : 
		On exit  : 
		Unchanged: 
 Data sizes:     COMMON   BANK0   BANK1   BANK3   BANK2
      Params:         0       0       0       0       0
      Locals:         0       1       0       0       0
      Temps:          0       1       0       0       0
      Totals:         0       2       0       0       0
Total ram usage:        2 bytes
 Hardware stack levels used:    1
 Hardware stack levels required when called:    2
 This function calls:
		Nothing
 This function is called by:
		_main
 This function uses a non-reentrant model


 *************** function _hello_world *****************
 Defined at:
		line 34 in file "alarm_source.c"
 Parameters:    Size  Location     Type
		None
 Auto vars:     Size  Location     Type
		None
 Return value:  Size  Location     Type
		None               void
 Registers used:
		None
 Tracked objects:
		On entry : 
		On exit  : 
		Unchanged: 
 Data sizes:     COMMON   BANK0   BANK1   BANK3   BANK2
      Params:         0       0       0       0       0
      Locals:         0       0       0       0       0
      Temps:          0       0       0       0       0
      Totals:         0       0       0       0       0
Total ram usage:        0 bytes
 Hardware stack levels used:    1
 Hardware stack levels required when called:    2
 This function calls:
		Nothing
 This function is called by:
		_main
 This function uses a non-reentrant model


 *************** function _checkTankStatus *****************
 Defined at:
		line 4 in file "util.c"
 Parameters:    Size  Location     Type
  theSensor       1    wreg     PTR volatile struct leve
		 -> levelSensors(10), 
 Auto vars:     Size  Location     Type
  theSensor       1    1[BANK0 ] PTR volatile struct leve
		 -> levelSensors(10), 
 Return value:  Size  Location     Type
		None               void
 Registers used:
		wreg, fsr0l, fsr0h, status,2, status,0
 Tracked objects:
		On entry : 
		On exit  : 
		Unchanged: 
 Data sizes:     COMMON   BANK0   BANK1   BANK3   BANK2
      Params:         0       0       0       0       0
      Locals:         0       1       0       0       0
      Temps:          0       1       0       0       0
      Totals:         0       2       0       0       0
Total ram usage:        2 bytes
 Hardware stack levels used:    1
 Hardware stack levels required when called:    2
 This function calls:
		Nothing
 This function is called by:
		_main
 This function uses a non-reentrant model


 *************** function _checkSensorState *****************
 Defined at:
		line 20 in file "util.c"
 Parameters:    Size  Location     Type
  theSensor       1    wreg     PTR volatile struct leve
		 -> levelSensors(10), 
 Auto vars:     Size  Location     Type
  theSensor       1    5[BANK0 ] PTR volatile struct leve
		 -> levelSensors(10), 
 Return value:  Size  Location     Type
		None               void
 Registers used:
		wreg, fsr0l, fsr0h, status,2, status,0, btemp+1, pclath
 Tracked objects:
		On entry : 
		On exit  : 
		Unchanged: 
 Data sizes:     COMMON   BANK0   BANK1   BANK3   BANK2
      Params:         0       0       0       0       0
      Locals:         0       1       0       0       0
      Temps:          0       5       0       0       0
      Totals:         0       6       0       0       0
Total ram usage:        6 bytes
 Hardware stack levels used:    1
 Hardware stack levels required when called:    2
 This function calls:
		Nothing
 This function is called by:
		_main
 This function uses a non-reentrant model


 *************** function _adc_init_CH0 *****************
 Defined at:
		line 188 in file "util.c"
 Parameters:    Size  Location     Type
		None
 Auto vars:     Size  Location     Type
		None
 Return value:  Size  Location     Type
		None               void
 Registers used:
		wreg, status,2, status,0
 Tracked objects:
		On entry : 
		On exit  : 
		Unchanged: 
 Data sizes:     COMMON   BANK0   BANK1   BANK3   BANK2
      Params:         0       0       0       0       0
      Locals:         0       0       0       0       0
      Temps:          0       0       0       0       0
      Totals:         0       0       0       0       0
Total ram usage:        0 bytes
 Hardware stack levels used:    1
 Hardware stack levels required when called:    2
 This function calls:
		Nothing
 This function is called by:
		_main
 This function uses a non-reentrant model


 *************** function _ISR *****************
 Defined at:
		line 43 in file "main.c"
 Parameters:    Size  Location     Type
		None
 Auto vars:     Size  Location     Type
		None
 Return value:  Size  Location     Type
		None               void
 Registers used:
		wreg, fsr0l, fsr0h, status,2, status,0, pclath, cstack
 Tracked objects:
		On entry : 
		On exit  : 
		Unchanged: 
 Data sizes:     COMMON   BANK0   BANK1   BANK3   BANK2
      Params:         0       0       0       0       0
      Locals:         0       0       0       0       0
      Temps:          7       0       0       0       0
      Totals:         7       0       0       0       0
Total ram usage:        7 bytes
 Hardware stack levels used:    1
 Hardware stack levels required when called:    1
 This function calls:
		___awmod
		_timer1_stop
 This function is called by:
		Interrupt level 1
 This function uses a non-reentrant model


 *************** function _timer1_stop *****************
 Defined at:
		line 142 in file "util.c"
 Parameters:    Size  Location     Type
		None
 Auto vars:     Size  Location     Type
		None
 Return value:  Size  Location     Type
		None               void
 Registers used:
		None
 Tracked objects:
		On entry : 
		On exit  : 
		Unchanged: 
 Data sizes:     COMMON   BANK0   BANK1   BANK3   BANK2
      Params:         0       0       0       0       0
      Locals:         0       0       0       0       0
      Temps:          0       0       0       0       0
      Totals:         0       0       0       0       0
Total ram usage:        0 bytes
 Hardware stack levels used:    1
 This function calls:
		Nothing
 This function is called by:
		_ISR
 This function uses a non-reentrant model


 *************** function ___awmod *****************
 Defined at:
		line 6 in file "/opt/microchip/xc8/v1.34/sources/common/awmod.c"
 Parameters:    Size  Location     Type
  divisor         2    0[COMMON] int 
  dividend        2    2[COMMON] int 
 Auto vars:     Size  Location     Type
  sign            1    6[COMMON] unsigned char 
  counter         1    5[COMMON] unsigned char 
 Return value:  Size  Location     Type
                  2    0[COMMON] int 
 Registers used:
		wreg, status,2, status,0
 Tracked objects:
		On entry : 
		On exit  : 
		Unchanged: 
 Data sizes:     COMMON   BANK0   BANK1   BANK3   BANK2
      Params:         4       0       0       0       0
      Locals:         2       0       0       0       0
      Temps:          1       0       0       0       0
      Totals:         7       0       0       0       0
Total ram usage:        7 bytes
 Hardware stack levels used:    1
 This function calls:
		Nothing
 This function is called by:
		_ISR
 This function uses a non-reentrant model



MODULE INFORMATION

Module		Function		Class		Link	Load	Size
/opt/microchip/xc8/v1.34/sources/common/awmod.c
		___awmod       		CODE           	024D	0000	76

/opt/microchip/xc8/v1.34/sources/common/awmod.c estimated size: 76

shared
		__stringtab    		STRING         	02D2	0000	7
		_FILTERTMR_TO_E		STRING         	02D8	0000	3
		_FILTERTMR_TO_F		STRING         	02DA	0000	3
		__initializatio		CODE           	0015	0000	8

shared estimated size: 21

alarm_source.c
		_hello_world   		CODE           	0311	0000	2

alarm_source.c estimated size: 2

util.c
		_timer2_init   		CODE           	02E5	0000	10
		_timer2_start  		CODE           	02DC	0000	10
		_timer0_init   		CODE           	02EE	0000	10
		_init_sensor   		CODE           	0298	0000	25
		_timer0_start  		CODE           	030D	0000	5
		_checkSensorSta		CODE           	0020	0000	226
		_timer1_init   		CODE           	0307	0000	7
		_timer1_stop   		CODE           	02FF	0000	9
		_adc_init_CH0  		CODE           	02C6	0000	13
		_checkTankStatu		CODE           	02B0	0000	23

util.c estimated size: 338

main.c
		_ISR           		CODE           	0101	0000	199
		_main          		CODE           	01C7	0000	135

main.c estimated size: 334

